; Function Attrs: mustprogress nofree norecurse nosync nounwind willreturn memory(read, inaccessiblemem: none) uwtable
define hidden ptr @je_edata_heap_any(ptr noundef readonly captures(none) %0) local_unnamed_addr #3 {
  %2 = load ptr, ptr %0, align 8, !tbaa !4
  %3 = icmp eq ptr %2, null
  br i1 %3, label %ph_any.exit, label %4

4:                                                ; preds = %1
  %5 = ptrtoint ptr %2 to i64
  %6 = add i64 %5, 40
  %7 = inttoptr i64 %6 to ptr
  %8 = getelementptr inbounds nuw i8, ptr %7, i64 8
  %9 = load ptr, ptr %8, align 8, !tbaa !11
  %.not.i = icmp eq ptr %9, null
  %spec.select = select i1 %.not.i, ptr %2, ptr %9
  br label %ph_any.exit

ph_any.exit:                                      ; preds = %4, %1
  %.0.i = phi ptr [ null, %1 ], [ %spec.select, %4 ]
  ret ptr %.0.i
}